target datalayout = "e-m:e-p270:32:32-p271:32:32-p272:64:64-i64:64-i128:128-f80:128-n8:16:32:64-S128"
target triple = "x86_64-pc-linux-gnu"

%struct.lex_context = type { i16, [2 x i8] }
%struct.parser_params = type { ptr, ptr, %struct.anon.12, i64, i64, i32, i32, i32, i32, i32, ptr, ptr, ptr, ptr, i32, i32, ptr, i64, ptr, ptr, ptr, ptr, i64, i64, %struct.anon.13, ptr, i32, ptr, i32, i64, %struct.lex_context, ptr, ptr, ptr, i32, i64, ptr, ptr, i32, ptr }
%struct.anon.12 = type { ptr, ptr, ptr, %struct.parser_string_buffer, ptr, ptr, ptr, ptr, ptr, ptr, i32, i32, i32, i32 }
%struct.parser_string_buffer = type { ptr, ptr }
%struct.anon.13 = type { ptr, i32, i32, i32, i32 }
%struct.OnigEncodingTypeST = type { ptr, ptr, i32, i32, ptr, ptr, ptr, ptr, ptr, ptr, ptr, ptr, ptr, ptr, ptr, ptr, ptr, i32, i32 }

@.str.798 = private unnamed_addr constant [28 x i8] c"invalid multibyte char (%s)\00", align 1

; Function Attrs: inlinehint nounwind sspstrong uwtable
define internal ptr @rb_enc_name(ptr noundef %0) #2 {
  %2 = alloca ptr, align 8
  store ptr %0, ptr %2, align 8, !tbaa !21
  %3 = load ptr, ptr %2, align 8, !tbaa !21
  %4 = getelementptr inbounds nuw %struct.OnigEncodingTypeST, ptr %3, i32 0, i32 1
  %5 = load ptr, ptr %4, align 8, !tbaa !643
  ret ptr %5
}

; Function Attrs: nounwind sspstrong uwtable
define internal i32 @parser_precise_mbclen(ptr noundef %0, ptr noundef %1) #0 {
  %3 = alloca i32, align 4
  %4 = alloca ptr, align 8
  %5 = alloca ptr, align 8
  %6 = alloca i32, align 4
  %7 = alloca i32, align 4
  store ptr %0, ptr %4, align 8, !tbaa !7
  store ptr %1, ptr %5, align 8, !tbaa !19
  call void @llvm.lifetime.start.p0(i64 4, ptr %6) #26
  %8 = load ptr, ptr %5, align 8, !tbaa !19
  %9 = load ptr, ptr %4, align 8, !tbaa !7
  %10 = getelementptr inbounds nuw %struct.parser_params, ptr %9, i32 0, i32 2
  %11 = getelementptr inbounds nuw %struct.anon.12, ptr %10, i32 0, i32 8
  %12 = load ptr, ptr %11, align 8, !tbaa !448
  %13 = load ptr, ptr %4, align 8, !tbaa !7
  %14 = getelementptr inbounds nuw %struct.parser_params, ptr %13, i32 0, i32 18
  %15 = load ptr, ptr %14, align 8, !tbaa !148
  %16 = call i32 @rb_enc_precise_mbclen(ptr noundef %8, ptr noundef %12, ptr noundef %15)
  store i32 %16, ptr %6, align 4, !tbaa !34
  %17 = load i32, ptr %6, align 4, !tbaa !34
  %18 = icmp slt i32 0, %17
  br i1 %18, label %25, label %19

19:                                               ; preds = %2
  %20 = load ptr, ptr %4, align 8, !tbaa !7
  %21 = load ptr, ptr %4, align 8, !tbaa !7
  %22 = getelementptr inbounds nuw %struct.parser_params, ptr %21, i32 0, i32 18
  %23 = load ptr, ptr %22, align 8, !tbaa !148
  %24 = call ptr @rb_enc_name(ptr noundef %23)
  call void (ptr, ptr, ptr, ...) @parser_compile_error(ptr noundef %20, ptr noundef null, ptr noundef @.str.798, ptr noundef %24)
  store i32 -1, ptr %3, align 4
  store i32 1, ptr %7, align 4
  br label %27

25:                                               ; preds = %2
  %26 = load i32, ptr %6, align 4, !tbaa !34
  store i32 %26, ptr %3, align 4
  store i32 1, ptr %7, align 4
  br label %27

27:                                               ; preds = %25, %19
  call void @llvm.lifetime.end.p0(i64 4, ptr %6) #26
  %28 = load i32, ptr %3, align 4
  ret i32 %28
}

; Function Attrs: nounwind sspstrong uwtable
define internal i32 @tokskip_mbchar(ptr noundef %0) #0 {
  %2 = alloca ptr, align 8
  %3 = alloca i32, align 4
  store ptr %0, ptr %2, align 8, !tbaa !7
  call void @llvm.lifetime.start.p0(i64 4, ptr %3) #26
  %4 = load ptr, ptr %2, align 8, !tbaa !7
  %5 = load ptr, ptr %2, align 8, !tbaa !7
  %6 = getelementptr inbounds nuw %struct.parser_params, ptr %5, i32 0, i32 2
  %7 = getelementptr inbounds nuw %struct.anon.12, ptr %6, i32 0, i32 7
  %8 = load ptr, ptr %7, align 8, !tbaa !161
  %9 = getelementptr i8, ptr %8, i64 -1
  %10 = call i32 @parser_precise_mbclen(ptr noundef %4, ptr noundef %9)
  store i32 %10, ptr %3, align 4, !tbaa !34
  %11 = load i32, ptr %3, align 4, !tbaa !34
  %12 = icmp sgt i32 %11, 0
  br i1 %12, label %13, label %22

13:                                               ; preds = %1
  %14 = load i32, ptr %3, align 4, !tbaa !34
  %15 = sub i32 %14, 1
  %16 = load ptr, ptr %2, align 8, !tbaa !7
  %17 = getelementptr inbounds nuw %struct.parser_params, ptr %16, i32 0, i32 2
  %18 = getelementptr inbounds nuw %struct.anon.12, ptr %17, i32 0, i32 7
  %19 = load ptr, ptr %18, align 8, !tbaa !161
  %20 = sext i32 %15 to i64
  %21 = getelementptr i8, ptr %19, i64 %20
  store ptr %21, ptr %18, align 8, !tbaa !161
  br label %22

22:                                               ; preds = %13, %1
  %23 = load i32, ptr %3, align 4, !tbaa !34
  call void @llvm.lifetime.end.p0(i64 4, ptr %3) #26
  ret i32 %23
}