; Function Attrs: nounwind sspstrong uwtable
define internal fastcc void @tokskip_mbchar(ptr noundef captures(none) %0) unnamed_addr #0 {
  %2 = getelementptr inbounds nuw i8, ptr %0, i64 80
  %3 = load ptr, ptr %2, align 8, !tbaa !184
  %4 = getelementptr i8, ptr %3, i64 -1
  %5 = getelementptr inbounds nuw i8, ptr %0, i64 88
  %6 = load ptr, ptr %5, align 8, !tbaa !420
  %7 = getelementptr inbounds nuw i8, ptr %0, i64 216
  %8 = load ptr, ptr %7, align 8, !tbaa !172
  %9 = tail call i32 @rb_enc_precise_mbclen(ptr noundef %4, ptr noundef %6, ptr noundef %8) #35
  %10 = icmp sgt i32 %9, 0
  br i1 %10, label %13, label %parser_precise_mbclen.exit

parser_precise_mbclen.exit:                       ; preds = %1
  %11 = load ptr, ptr %7, align 8, !tbaa !172
  %12 = getelementptr i8, ptr %11, i64 8
  %.val.i = load ptr, ptr %12, align 8, !tbaa !563
  tail call void (ptr, ptr, ptr, ...) @parser_compile_error(ptr noundef nonnull %0, ptr noundef null, ptr noundef nonnull @.str.798, ptr noundef %.val.i)
  br label %18

13:                                               ; preds = %1
  %14 = load ptr, ptr %2, align 8, !tbaa !184
  %15 = zext nneg i32 %9 to i64
  %16 = getelementptr i8, ptr %14, i64 %15
  %17 = getelementptr i8, ptr %16, i64 -1
  store ptr %17, ptr %2, align 8, !tbaa !184
  br label %18

18:                                               ; preds = %parser_precise_mbclen.exit, %13
  ret void
}